#include <math.h>
#include <stdio.h>
#include <stdlib.h>
#include <string.h>

int main()
{
    int i,j,row,cow,a[100][100];
    scanf("%d%d",&row,&cow);
    for(i=0;i<row;i++)
    {
                      for(j=0;j<cow;j++)
                      {
                                        scanf("%d",&a[i][j]);
                      }
                      if(i!=row-1)
                      printf("\n");
    }
    i=0;
    while(row-i-i>1&&cow-i-i>1)
    {
                                   for(j=i;j<cow-i;j++)
                                   {
                                                       printf("%d\n",a[i][j]);
                                   }
                                    for(j=i+1;j<row-i;j++)
                                   {
                                                       printf("%d\n",a[j][cow-i-1]);
                                   }
                                    for(j=cow-2-i;j>=i;j--)
                                   {
                                                       printf("%d\n",a[row-1-i][j]);
                                   }
                                    for(j=row-2-i;j>=i+1;j--)
                                   {
                                                       printf("%d\n",a[j][i]);
                                   }
                                   i++;
    }
    if(row-i-i==1)
    {
                     for(j=i;j<cow-i;j++)
                                   {
                                                       printf("%d\n",a[i][j]);
                                   }
    }
    else if(cow-i-i==1)
    {
                     for(j=i;j<row-i;j++)
                                   {
                                                       printf("%d\n",a[j][i]);
                                   }
    }
    return 0;
}