; ModuleID = '46/141.c'
source_filename = "46/141.c"
target datalayout = "e-m:e-p270:32:32-p271:32:32-p272:64:64-i64:64-f80:128-n8:16:32:64-S128"
target triple = "x86_64-pc-linux-gnu"

@.str = private unnamed_addr constant [5 x i8] c"%d%d\00", align 1
@.str.1 = private unnamed_addr constant [3 x i8] c"%d\00", align 1
@.str.2 = private unnamed_addr constant [2 x i8] c"\0A\00", align 1
@.str.3 = private unnamed_addr constant [4 x i8] c"%d\0A\00", align 1

; Function Attrs: noinline nounwind uwtable
define dso_local i32 @main() #0 {
  %1 = alloca i32, align 4
  %2 = alloca i32, align 4
  %3 = alloca i32, align 4
  %4 = alloca i32, align 4
  %5 = alloca i32, align 4
  %6 = alloca [100 x [100 x i32]], align 16
  store i32 0, i32* %1, align 4
  %7 = call i32 (i8*, ...) @__isoc99_scanf(i8* getelementptr inbounds ([5 x i8], [5 x i8]* @.str, i64 0, i64 0), i32* %4, i32* %5)
  store i32 0, i32* %2, align 4
  br label %8

8:                                                ; preds = %36, %0
  %9 = load i32, i32* %2, align 4
  %10 = load i32, i32* %4, align 4
  %11 = icmp slt i32 %9, %10
  br i1 %11, label %12, label %39

12:                                               ; preds = %8
  store i32 0, i32* %3, align 4
  br label %13

13:                                               ; preds = %25, %12
  %14 = load i32, i32* %3, align 4
  %15 = load i32, i32* %5, align 4
  %16 = icmp slt i32 %14, %15
  br i1 %16, label %17, label %28

17:                                               ; preds = %13
  %18 = load i32, i32* %2, align 4
  %19 = sext i32 %18 to i64
  %20 = getelementptr inbounds [100 x [100 x i32]], [100 x [100 x i32]]* %6, i64 0, i64 %19
  %21 = load i32, i32* %3, align 4
  %22 = sext i32 %21 to i64
  %23 = getelementptr inbounds [100 x i32], [100 x i32]* %20, i64 0, i64 %22
  %24 = call i32 (i8*, ...) @__isoc99_scanf(i8* getelementptr inbounds ([3 x i8], [3 x i8]* @.str.1, i64 0, i64 0), i32* %23)
  br label %25

25:                                               ; preds = %17
  %26 = load i32, i32* %3, align 4
  %27 = add nsw i32 %26, 1
  store i32 %27, i32* %3, align 4
  br label %13

28:                                               ; preds = %13
  %29 = load i32, i32* %2, align 4
  %30 = load i32, i32* %4, align 4
  %31 = sub nsw i32 %30, 1
  %32 = icmp ne i32 %29, %31
  br i1 %32, label %33, label %35

33:                                               ; preds = %28
  %34 = call i32 (i8*, ...) @printf(i8* getelementptr inbounds ([2 x i8], [2 x i8]* @.str.2, i64 0, i64 0))
  br label %35

35:                                               ; preds = %33, %28
  br label %36

36:                                               ; preds = %35
  %37 = load i32, i32* %2, align 4
  %38 = add nsw i32 %37, 1
  store i32 %38, i32* %2, align 4
  br label %8

39:                                               ; preds = %8
  store i32 0, i32* %2, align 4
  br label %40

40:                                               ; preds = %146, %39
  %41 = load i32, i32* %4, align 4
  %42 = load i32, i32* %2, align 4
  %43 = sub nsw i32 %41, %42
  %44 = load i32, i32* %2, align 4
  %45 = sub nsw i32 %43, %44
  %46 = icmp sgt i32 %45, 1
  br i1 %46, label %47, label %54

47:                                               ; preds = %40
  %48 = load i32, i32* %5, align 4
  %49 = load i32, i32* %2, align 4
  %50 = sub nsw i32 %48, %49
  %51 = load i32, i32* %2, align 4
  %52 = sub nsw i32 %50, %51
  %53 = icmp sgt i32 %52, 1
  br label %54

54:                                               ; preds = %47, %40
  %55 = phi i1 [ false, %40 ], [ %53, %47 ]
  br i1 %55, label %56, label %149

56:                                               ; preds = %54
  %57 = load i32, i32* %2, align 4
  store i32 %57, i32* %3, align 4
  br label %58

58:                                               ; preds = %73, %56
  %59 = load i32, i32* %3, align 4
  %60 = load i32, i32* %5, align 4
  %61 = load i32, i32* %2, align 4
  %62 = sub nsw i32 %60, %61
  %63 = icmp slt i32 %59, %62
  br i1 %63, label %64, label %76

64:                                               ; preds = %58
  %65 = load i32, i32* %2, align 4
  %66 = sext i32 %65 to i64
  %67 = getelementptr inbounds [100 x [100 x i32]], [100 x [100 x i32]]* %6, i64 0, i64 %66
  %68 = load i32, i32* %3, align 4
  %69 = sext i32 %68 to i64
  %70 = getelementptr inbounds [100 x i32], [100 x i32]* %67, i64 0, i64 %69
  %71 = load i32, i32* %70, align 4
  %72 = call i32 (i8*, ...) @printf(i8* getelementptr inbounds ([4 x i8], [4 x i8]* @.str.3, i64 0, i64 0), i32 %71)
  br label %73

73:                                               ; preds = %64
  %74 = load i32, i32* %3, align 4
  %75 = add nsw i32 %74, 1
  store i32 %75, i32* %3, align 4
  br label %58

76:                                               ; preds = %58
  %77 = load i32, i32* %2, align 4
  %78 = add nsw i32 %77, 1
  store i32 %78, i32* %3, align 4
  br label %79

79:                                               ; preds = %97, %76
  %80 = load i32, i32* %3, align 4
  %81 = load i32, i32* %4, align 4
  %82 = load i32, i32* %2, align 4
  %83 = sub nsw i32 %81, %82
  %84 = icmp slt i32 %80, %83
  br i1 %84, label %85, label %100

85:                                               ; preds = %79
  %86 = load i32, i32* %3, align 4
  %87 = sext i32 %86 to i64
  %88 = getelementptr inbounds [100 x [100 x i32]], [100 x [100 x i32]]* %6, i64 0, i64 %87
  %89 = load i32, i32* %5, align 4
  %90 = load i32, i32* %2, align 4
  %91 = sub nsw i32 %89, %90
  %92 = sub nsw i32 %91, 1
  %93 = sext i32 %92 to i64
  %94 = getelementptr inbounds [100 x i32], [100 x i32]* %88, i64 0, i64 %93
  %95 = load i32, i32* %94, align 4
  %96 = call i32 (i8*, ...) @printf(i8* getelementptr inbounds ([4 x i8], [4 x i8]* @.str.3, i64 0, i64 0), i32 %95)
  br label %97

97:                                               ; preds = %85
  %98 = load i32, i32* %3, align 4
  %99 = add nsw i32 %98, 1
  store i32 %99, i32* %3, align 4
  br label %79

100:                                              ; preds = %79
  %101 = load i32, i32* %5, align 4
  %102 = sub nsw i32 %101, 2
  %103 = load i32, i32* %2, align 4
  %104 = sub nsw i32 %102, %103
  store i32 %104, i32* %3, align 4
  br label %105

105:                                              ; preds = %121, %100
  %106 = load i32, i32* %3, align 4
  %107 = load i32, i32* %2, align 4
  %108 = icmp sge i32 %106, %107
  br i1 %108, label %109, label %124

109:                                              ; preds = %105
  %110 = load i32, i32* %4, align 4
  %111 = sub nsw i32 %110, 1
  %112 = load i32, i32* %2, align 4
  %113 = sub nsw i32 %111, %112
  %114 = sext i32 %113 to i64
  %115 = getelementptr inbounds [100 x [100 x i32]], [100 x [100 x i32]]* %6, i64 0, i64 %114
  %116 = load i32, i32* %3, align 4
  %117 = sext i32 %116 to i64
  %118 = getelementptr inbounds [100 x i32], [100 x i32]* %115, i64 0, i64 %117
  %119 = load i32, i32* %118, align 4
  %120 = call i32 (i8*, ...) @printf(i8* getelementptr inbounds ([4 x i8], [4 x i8]* @.str.3, i64 0, i64 0), i32 %119)
  br label %121

121:                                              ; preds = %109
  %122 = load i32, i32* %3, align 4
  %123 = add nsw i32 %122, -1
  store i32 %123, i32* %3, align 4
  br label %105

124:                                              ; preds = %105
  %125 = load i32, i32* %4, align 4
  %126 = sub nsw i32 %125, 2
  %127 = load i32, i32* %2, align 4
  %128 = sub nsw i32 %126, %127
  store i32 %128, i32* %3, align 4
  br label %129

129:                                              ; preds = %143, %124
  %130 = load i32, i32* %3, align 4
  %131 = load i32, i32* %2, align 4
  %132 = add nsw i32 %131, 1
  %133 = icmp sge i32 %130, %132
  br i1 %133, label %134, label %146

134:                                              ; preds = %129
  %135 = load i32, i32* %3, align 4
  %136 = sext i32 %135 to i64
  %137 = getelementptr inbounds [100 x [100 x i32]], [100 x [100 x i32]]* %6, i64 0, i64 %136
  %138 = load i32, i32* %2, align 4
  %139 = sext i32 %138 to i64
  %140 = getelementptr inbounds [100 x i32], [100 x i32]* %137, i64 0, i64 %139
  %141 = load i32, i32* %140, align 4
  %142 = call i32 (i8*, ...) @printf(i8* getelementptr inbounds ([4 x i8], [4 x i8]* @.str.3, i64 0, i64 0), i32 %141)
  br label %143

143:                                              ; preds = %134
  %144 = load i32, i32* %3, align 4
  %145 = add nsw i32 %144, -1
  store i32 %145, i32* %3, align 4
  br label %129

146:                                              ; preds = %129
  %147 = load i32, i32* %2, align 4
  %148 = add nsw i32 %147, 1
  store i32 %148, i32* %2, align 4
  br label %40

149:                                              ; preds = %54
  %150 = load i32, i32* %4, align 4
  %151 = load i32, i32* %2, align 4
  %152 = sub nsw i32 %150, %151
  %153 = load i32, i32* %2, align 4
  %154 = sub nsw i32 %152, %153
  %155 = icmp eq i32 %154, 1
  br i1 %155, label %156, label %177

156:                                              ; preds = %149
  %157 = load i32, i32* %2, align 4
  store i32 %157, i32* %3, align 4
  br label %158

158:                                              ; preds = %173, %156
  %159 = load i32, i32* %3, align 4
  %160 = load i32, i32* %5, align 4
  %161 = load i32, i32* %2, align 4
  %162 = sub nsw i32 %160, %161
  %163 = icmp slt i32 %159, %162
  br i1 %163, label %164, label %176

164:                                              ; preds = %158
  %165 = load i32, i32* %2, align 4
  %166 = sext i32 %165 to i64
  %167 = getelementptr inbounds [100 x [100 x i32]], [100 x [100 x i32]]* %6, i64 0, i64 %166
  %168 = load i32, i32* %3, align 4
  %169 = sext i32 %168 to i64
  %170 = getelementptr inbounds [100 x i32], [100 x i32]* %167, i64 0, i64 %169
  %171 = load i32, i32* %170, align 4
  %172 = call i32 (i8*, ...) @printf(i8* getelementptr inbounds ([4 x i8], [4 x i8]* @.str.3, i64 0, i64 0), i32 %171)
  br label %173

173:                                              ; preds = %164
  %174 = load i32, i32* %3, align 4
  %175 = add nsw i32 %174, 1
  store i32 %175, i32* %3, align 4
  br label %158

176:                                              ; preds = %158
  br label %206

177:                                              ; preds = %149
  %178 = load i32, i32* %5, align 4
  %179 = load i32, i32* %2, align 4
  %180 = sub nsw i32 %178, %179
  %181 = load i32, i32* %2, align 4
  %182 = sub nsw i32 %180, %181
  %183 = icmp eq i32 %182, 1
  br i1 %183, label %184, label %205

184:                                              ; preds = %177
  %185 = load i32, i32* %2, align 4
  store i32 %185, i32* %3, align 4
  br label %186

186:                                              ; preds = %201, %184
  %187 = load i32, i32* %3, align 4
  %188 = load i32, i32* %4, align 4
  %189 = load i32, i32* %2, align 4
  %190 = sub nsw i32 %188, %189
  %191 = icmp slt i32 %187, %190
  br i1 %191, label %192, label %204

192:                                              ; preds = %186
  %193 = load i32, i32* %3, align 4
  %194 = sext i32 %193 to i64
  %195 = getelementptr inbounds [100 x [100 x i32]], [100 x [100 x i32]]* %6, i64 0, i64 %194
  %196 = load i32, i32* %2, align 4
  %197 = sext i32 %196 to i64
  %198 = getelementptr inbounds [100 x i32], [100 x i32]* %195, i64 0, i64 %197
  %199 = load i32, i32* %198, align 4
  %200 = call i32 (i8*, ...) @printf(i8* getelementptr inbounds ([4 x i8], [4 x i8]* @.str.3, i64 0, i64 0), i32 %199)
  br label %201

201:                                              ; preds = %192
  %202 = load i32, i32* %3, align 4
  %203 = add nsw i32 %202, 1
  store i32 %203, i32* %3, align 4
  br label %186

204:                                              ; preds = %186
  br label %205

205:                                              ; preds = %204, %177
  br label %206

206:                                              ; preds = %205, %176
  ret i32 0
}

declare dso_local i32 @__isoc99_scanf(i8*, ...) #1

declare dso_local i32 @printf(i8*, ...) #1


!llvm.module.flags = !{!0}
!llvm.ident = !{!1}

!0 = !{i32 1, !"wchar_size", i32 4}
!1 = !{!"clang version 10.0.0-4ubuntu1 "}
